target datalayout = "e-m:e-p270:32:32-p271:32:32-p272:64:64-i64:64-i128:128-f80:128-n8:16:32:64-S128"
target triple = "x86_64-pc-linux-gnu"

%struct.evp_pkey_st = type { i32, i32, ptr, ptr, ptr, %union.legacy_pkey_st, %union.legacy_pkey_st, %struct.CRYPTO_REF_COUNT, ptr, ptr, i32, i8, %struct.crypto_ex_data_st, ptr, ptr, i64, ptr, i64, %struct.anon }
%union.legacy_pkey_st = type { ptr }
%struct.CRYPTO_REF_COUNT = type { i32 }
%struct.crypto_ex_data_st = type { ptr, ptr }
%struct.anon = type { i32, i32, i32 }
%struct.evp_pkey_asn1_method_st = type { i32, i32, i64, ptr, ptr, ptr, ptr, ptr, ptr, ptr, ptr, ptr, ptr, ptr, ptr, ptr, ptr, ptr, ptr, ptr, ptr, ptr, ptr, ptr, ptr, ptr, ptr, ptr, ptr, ptr, ptr, ptr, ptr, ptr, ptr, ptr, ptr, ptr, ptr, ptr, ptr }
%struct.evp_keymgmt_st = type { i32, i32, i32, ptr, ptr, ptr, %struct.CRYPTO_REF_COUNT, ptr, ptr, ptr, ptr, ptr, ptr, ptr, ptr, ptr, ptr, ptr, ptr, ptr, ptr, ptr, ptr, ptr, ptr, ptr, ptr, ptr, ptr, ptr, ptr, ptr, ptr }

@.str.2 = private unnamed_addr constant [16 x i8] c"encoded-pub-key\00", align 1

; Function Attrs: nounwind uwtable
define i32 @EVP_PKEY_get_default_digest_nid(ptr noundef %0, ptr noundef %1) #0 {
  %3 = alloca i32, align 4
  %4 = alloca ptr, align 8
  %5 = alloca ptr, align 8
  store ptr %0, ptr %4, align 8, !tbaa !3
  store ptr %1, ptr %5, align 8, !tbaa !129
  %6 = load ptr, ptr %4, align 8, !tbaa !3
  %7 = icmp eq ptr %6, null
  br i1 %7, label %8, label %9

8:                                                ; preds = %2
  store i32 0, ptr %3, align 4
  br label %13

9:                                                ; preds = %2
  %10 = load ptr, ptr %4, align 8, !tbaa !3
  %11 = load ptr, ptr %5, align 8, !tbaa !129
  %12 = call i32 @evp_pkey_asn1_ctrl(ptr noundef %10, i32 noundef 3, i32 noundef 0, ptr noundef %11)
  store i32 %12, ptr %3, align 4
  br label %13

13:                                               ; preds = %9, %8
  %14 = load i32, ptr %3, align 4
  ret i32 %14
}

; Function Attrs: nounwind uwtable
define i32 @EVP_PKEY_get_default_digest_name(ptr noundef %0, ptr noundef %1, i64 noundef %2) #0 {
  %4 = alloca i32, align 4
  %5 = alloca ptr, align 8
  %6 = alloca ptr, align 8
  %7 = alloca i64, align 8
  %8 = alloca i32, align 4
  %9 = alloca i32, align 4
  %10 = alloca ptr, align 8
  store ptr %0, ptr %5, align 8, !tbaa !3
  store ptr %1, ptr %6, align 8, !tbaa !39
  store i64 %2, ptr %7, align 8, !tbaa !68
  %11 = load ptr, ptr %5, align 8, !tbaa !3
  %12 = getelementptr inbounds nuw %struct.evp_pkey_st, ptr %11, i32 0, i32 2
  %13 = load ptr, ptr %12, align 8, !tbaa !23
  %14 = icmp eq ptr %13, null
  br i1 %14, label %15, label %25

15:                                               ; preds = %3
  %16 = load ptr, ptr %5, align 8, !tbaa !3
  %17 = getelementptr inbounds nuw %struct.evp_pkey_st, ptr %16, i32 0, i32 13
  %18 = load ptr, ptr %17, align 8, !tbaa !32
  %19 = load ptr, ptr %5, align 8, !tbaa !3
  %20 = getelementptr inbounds nuw %struct.evp_pkey_st, ptr %19, i32 0, i32 14
  %21 = load ptr, ptr %20, align 8, !tbaa !33
  %22 = load ptr, ptr %6, align 8, !tbaa !39
  %23 = load i64, ptr %7, align 8, !tbaa !68
  %24 = call i32 @evp_keymgmt_util_get_deflt_digest_name(ptr noundef %18, ptr noundef %21, ptr noundef %22, i64 noundef %23)
  store i32 %24, ptr %4, align 4
  br label %45

25:                                               ; preds = %3
  call void @llvm.lifetime.start.p0(i64 4, ptr %8) #8
  store i32 0, ptr %8, align 4, !tbaa !8
  call void @llvm.lifetime.start.p0(i64 4, ptr %9) #8
  %26 = load ptr, ptr %5, align 8, !tbaa !3
  %27 = call i32 @EVP_PKEY_get_default_digest_nid(ptr noundef %26, ptr noundef %8)
  store i32 %27, ptr %9, align 4, !tbaa !8
  call void @llvm.lifetime.start.p0(i64 8, ptr %10) #8
  %28 = load i32, ptr %9, align 4, !tbaa !8
  %29 = icmp sgt i32 %28, 0
  br i1 %29, label %30, label %33

30:                                               ; preds = %25
  %31 = load i32, ptr %8, align 4, !tbaa !8
  %32 = call ptr @OBJ_nid2sn(i32 noundef %31)
  br label %34

33:                                               ; preds = %25
  br label %34

34:                                               ; preds = %33, %30
  %35 = phi ptr [ %32, %30 ], [ null, %33 ]
  store ptr %35, ptr %10, align 8, !tbaa !39
  %36 = load i32, ptr %9, align 4, !tbaa !8
  %37 = icmp sgt i32 %36, 0
  br i1 %37, label %38, label %43

38:                                               ; preds = %34
  %39 = load ptr, ptr %6, align 8, !tbaa !39
  %40 = load ptr, ptr %10, align 8, !tbaa !39
  %41 = load i64, ptr %7, align 8, !tbaa !68
  %42 = call i64 @OPENSSL_strlcpy(ptr noundef %39, ptr noundef %40, i64 noundef %41)
  br label %43

43:                                               ; preds = %38, %34
  %44 = load i32, ptr %9, align 4, !tbaa !8
  store i32 %44, ptr %4, align 4
  call void @llvm.lifetime.end.p0(i64 8, ptr %10) #8
  call void @llvm.lifetime.end.p0(i64 4, ptr %9) #8
  call void @llvm.lifetime.end.p0(i64 4, ptr %8) #8
  br label %45

45:                                               ; preds = %43, %15
  %46 = load i32, ptr %4, align 4
  ret i32 %46
}

; Function Attrs: nounwind uwtable
define internal i32 @legacy_asn1_ctrl_to_param(ptr noundef %0, i32 noundef %1, i32 noundef %2, ptr noundef %3) #0 {
  %5 = alloca i32, align 4
  %6 = alloca ptr, align 8
  %7 = alloca i32, align 4
  %8 = alloca i32, align 4
  %9 = alloca ptr, align 8
  %10 = alloca [80 x i8], align 16
  %11 = alloca i32, align 4
  %12 = alloca i32, align 4
  %13 = alloca ptr, align 8
  %14 = alloca ptr, align 8
  %15 = alloca ptr, align 8
  %16 = alloca i32, align 4
  %17 = alloca i32, align 4
  store ptr %0, ptr %6, align 8, !tbaa !3
  store i32 %1, ptr %7, align 4, !tbaa !8
  store i32 %2, ptr %8, align 4, !tbaa !8
  store ptr %3, ptr %9, align 8, !tbaa !31
  %18 = load ptr, ptr %6, align 8, !tbaa !3
  %19 = getelementptr inbounds nuw %struct.evp_pkey_st, ptr %18, i32 0, i32 13
  %20 = load ptr, ptr %19, align 8, !tbaa !32
  %21 = icmp eq ptr %20, null
  br i1 %21, label %22, label %23

22:                                               ; preds = %4
  store i32 0, ptr %5, align 4
  br label %68

23:                                               ; preds = %4
  %24 = load i32, ptr %7, align 4, !tbaa !8
  switch i32 %24, label %67 [
    i32 3, label %25
  ]

25:                                               ; preds = %23
  call void @llvm.lifetime.start.p0(i64 80, ptr %10) #8
  call void @llvm.memset.p0.i64(ptr align 16 %10, i8 0, i64 80, i1 false)
  call void @llvm.lifetime.start.p0(i64 4, ptr %11) #8
  %26 = load ptr, ptr %6, align 8, !tbaa !3
  %27 = getelementptr inbounds [80 x i8], ptr %10, i64 0, i64 0
  %28 = call i32 @EVP_PKEY_get_default_digest_name(ptr noundef %26, ptr noundef %27, i64 noundef 80)
  store i32 %28, ptr %11, align 4, !tbaa !8
  %29 = load i32, ptr %11, align 4, !tbaa !8
  %30 = icmp sgt i32 %29, 0
  br i1 %30, label %31, label %64

31:                                               ; preds = %25
  call void @llvm.lifetime.start.p0(i64 4, ptr %12) #8
  call void @llvm.lifetime.start.p0(i64 8, ptr %13) #8
  %32 = load ptr, ptr %6, align 8, !tbaa !3
  %33 = getelementptr inbounds nuw %struct.evp_pkey_st, ptr %32, i32 0, i32 13
  %34 = load ptr, ptr %33, align 8, !tbaa !32
  %35 = getelementptr inbounds nuw %struct.evp_keymgmt_st, ptr %34, i32 0, i32 5
  %36 = load ptr, ptr %35, align 8, !tbaa !41
  %37 = call ptr @ossl_provider_libctx(ptr noundef %36)
  store ptr %37, ptr %13, align 8, !tbaa !44
  call void @llvm.lifetime.start.p0(i64 8, ptr %14) #8
  call void @llvm.lifetime.start.p0(i64 8, ptr %15) #8
  call void @llvm.lifetime.start.p0(i64 4, ptr %16) #8
  store i32 0, ptr %16, align 4, !tbaa !8
  %38 = call i32 @ERR_set_mark()
  %39 = load ptr, ptr %13, align 8, !tbaa !44
  %40 = getelementptr inbounds [80 x i8], ptr %10, i64 0, i64 0
  %41 = call ptr @EVP_MD_fetch(ptr noundef %39, ptr noundef %40, ptr noundef null)
  store ptr %41, ptr %14, align 8, !tbaa !155
  %42 = call i32 @ERR_pop_to_mark()
  %43 = load ptr, ptr %13, align 8, !tbaa !44
  %44 = call ptr @ossl_namemap_stored(ptr noundef %43)
  store ptr %44, ptr %15, align 8, !tbaa !157
  %45 = load ptr, ptr %14, align 8, !tbaa !155
  call void @EVP_MD_free(ptr noundef %45)
  %46 = load ptr, ptr %15, align 8, !tbaa !157
  %47 = getelementptr inbounds [80 x i8], ptr %10, i64 0, i64 0
  %48 = call i32 @ossl_namemap_name2num(ptr noundef %46, ptr noundef %47)
  store i32 %48, ptr %12, align 4, !tbaa !8
  %49 = load i32, ptr %12, align 4, !tbaa !8
  %50 = icmp eq i32 %49, 0
  br i1 %50, label %51, label %52

51:                                               ; preds = %31
  store i32 0, ptr %5, align 4
  store i32 1, ptr %17, align 4
  br label %61

52:                                               ; preds = %31
  %53 = load ptr, ptr %15, align 8, !tbaa !157
  %54 = load i32, ptr %12, align 4, !tbaa !8
  %55 = call i32 @ossl_namemap_doall_names(ptr noundef %53, i32 noundef %54, ptr noundef @mdname2nid, ptr noundef %16)
  %56 = icmp ne i32 %55, 0
  br i1 %56, label %58, label %57

57:                                               ; preds = %52
  store i32 0, ptr %5, align 4
  store i32 1, ptr %17, align 4
  br label %61

58:                                               ; preds = %52
  %59 = load i32, ptr %16, align 4, !tbaa !8
  %60 = load ptr, ptr %9, align 8, !tbaa !31
  store i32 %59, ptr %60, align 4, !tbaa !8
  store i32 0, ptr %17, align 4
  br label %61

61:                                               ; preds = %58, %57, %51
  call void @llvm.lifetime.end.p0(i64 4, ptr %16) #8
  call void @llvm.lifetime.end.p0(i64 8, ptr %15) #8
  call void @llvm.lifetime.end.p0(i64 8, ptr %14) #8
  call void @llvm.lifetime.end.p0(i64 8, ptr %13) #8
  call void @llvm.lifetime.end.p0(i64 4, ptr %12) #8
  %62 = load i32, ptr %17, align 4
  switch i32 %62, label %66 [
    i32 0, label %63
  ]

63:                                               ; preds = %61
  br label %64

64:                                               ; preds = %63, %25
  %65 = load i32, ptr %11, align 4, !tbaa !8
  store i32 %65, ptr %5, align 4
  store i32 1, ptr %17, align 4
  br label %66

66:                                               ; preds = %64, %61
  call void @llvm.lifetime.end.p0(i64 4, ptr %11) #8
  call void @llvm.lifetime.end.p0(i64 80, ptr %10) #8
  br label %68

67:                                               ; preds = %23
  store i32 -2, ptr %5, align 4
  br label %68

68:                                               ; preds = %67, %66, %22
  %69 = load i32, ptr %5, align 4
  ret i32 %69
}

; Function Attrs: nounwind uwtable
define internal i32 @evp_pkey_asn1_ctrl(ptr noundef %0, i32 noundef %1, i32 noundef %2, ptr noundef %3) #0 {
  %5 = alloca i32, align 4
  %6 = alloca ptr, align 8
  %7 = alloca i32, align 4
  %8 = alloca i32, align 4
  %9 = alloca ptr, align 8
  store ptr %0, ptr %6, align 8, !tbaa !3
  store i32 %1, ptr %7, align 4, !tbaa !8
  store i32 %2, ptr %8, align 4, !tbaa !8
  store ptr %3, ptr %9, align 8, !tbaa !31
  %10 = load ptr, ptr %6, align 8, !tbaa !3
  %11 = getelementptr inbounds nuw %struct.evp_pkey_st, ptr %10, i32 0, i32 2
  %12 = load ptr, ptr %11, align 8, !tbaa !23
  %13 = icmp eq ptr %12, null
  br i1 %13, label %14, label %20

14:                                               ; preds = %4
  %15 = load ptr, ptr %6, align 8, !tbaa !3
  %16 = load i32, ptr %7, align 4, !tbaa !8
  %17 = load i32, ptr %8, align 4, !tbaa !8
  %18 = load ptr, ptr %9, align 8, !tbaa !31
  %19 = call i32 @legacy_asn1_ctrl_to_param(ptr noundef %15, i32 noundef %16, i32 noundef %17, ptr noundef %18)
  store i32 %19, ptr %5, align 4
  br label %40

20:                                               ; preds = %4
  %21 = load ptr, ptr %6, align 8, !tbaa !3
  %22 = getelementptr inbounds nuw %struct.evp_pkey_st, ptr %21, i32 0, i32 2
  %23 = load ptr, ptr %22, align 8, !tbaa !23
  %24 = getelementptr inbounds nuw %struct.evp_pkey_asn1_method_st, ptr %23, i32 0, i32 23
  %25 = load ptr, ptr %24, align 8, !tbaa !130
  %26 = icmp eq ptr %25, null
  br i1 %26, label %27, label %28

27:                                               ; preds = %20
  store i32 -2, ptr %5, align 4
  br label %40

28:                                               ; preds = %20
  %29 = load ptr, ptr %6, align 8, !tbaa !3
  %30 = getelementptr inbounds nuw %struct.evp_pkey_st, ptr %29, i32 0, i32 2
  %31 = load ptr, ptr %30, align 8, !tbaa !23
  %32 = getelementptr inbounds nuw %struct.evp_pkey_asn1_method_st, ptr %31, i32 0, i32 23
  %33 = load ptr, ptr %32, align 8, !tbaa !130
  %34 = load ptr, ptr %6, align 8, !tbaa !3
  %35 = load i32, ptr %7, align 4, !tbaa !8
  %36 = load i32, ptr %8, align 4, !tbaa !8
  %37 = sext i32 %36 to i64
  %38 = load ptr, ptr %9, align 8, !tbaa !31
  %39 = call i32 %33(ptr noundef %34, i32 noundef %35, i64 noundef %37, ptr noundef %38)
  store i32 %39, ptr %5, align 4
  br label %40

40:                                               ; preds = %28, %27, %14
  %41 = load i32, ptr %5, align 4
  ret i32 %41
}

; Function Attrs: nounwind uwtable
define i32 @EVP_PKEY_set1_encoded_public_key(ptr noundef %0, ptr noundef %1, i64 noundef %2) #0 {
  %4 = alloca i32, align 4
  %5 = alloca ptr, align 8
  %6 = alloca ptr, align 8
  %7 = alloca i64, align 8
  store ptr %0, ptr %5, align 8, !tbaa !3
  store ptr %1, ptr %6, align 8, !tbaa !39
  store i64 %2, ptr %7, align 8, !tbaa !68
  %8 = load ptr, ptr %5, align 8, !tbaa !3
  %9 = icmp eq ptr %8, null
  br i1 %9, label %10, label %11

10:                                               ; preds = %3
  store i32 0, ptr %4, align 4
  br label %34

11:                                               ; preds = %3
  %12 = load ptr, ptr %5, align 8, !tbaa !3
  %13 = getelementptr inbounds nuw %struct.evp_pkey_st, ptr %12, i32 0, i32 13
  %14 = load ptr, ptr %13, align 8, !tbaa !32
  %15 = icmp ne ptr %14, null
  br i1 %15, label %16, label %21

16:                                               ; preds = %11
  %17 = load ptr, ptr %5, align 8, !tbaa !3
  %18 = load ptr, ptr %6, align 8, !tbaa !39
  %19 = load i64, ptr %7, align 8, !tbaa !68
  %20 = call i32 @EVP_PKEY_set_octet_string_param(ptr noundef %17, ptr noundef @.str.2, ptr noundef %18, i64 noundef %19)
  store i32 %20, ptr %4, align 4
  br label %34

21:                                               ; preds = %11
  %22 = load i64, ptr %7, align 8, !tbaa !68
  %23 = icmp ugt i64 %22, 2147483647
  br i1 %23, label %24, label %25

24:                                               ; preds = %21
  store i32 0, ptr %4, align 4
  br label %34

25:                                               ; preds = %21
  %26 = load ptr, ptr %5, align 8, !tbaa !3
  %27 = load i64, ptr %7, align 8, !tbaa !68
  %28 = trunc i64 %27 to i32
  %29 = load ptr, ptr %6, align 8, !tbaa !39
  %30 = call i32 @evp_pkey_asn1_ctrl(ptr noundef %26, i32 noundef 9, i32 noundef %28, ptr noundef %29)
  %31 = icmp sle i32 %30, 0
  br i1 %31, label %32, label %33

32:                                               ; preds = %25
  store i32 0, ptr %4, align 4
  br label %34

33:                                               ; preds = %25
  store i32 1, ptr %4, align 4
  br label %34

34:                                               ; preds = %33, %32, %24, %16, %10
  %35 = load i32, ptr %4, align 4
  ret i32 %35
}