; Function Attrs: nounwind uwtable
define i32 @EVP_PKEY_set1_encoded_public_key(ptr noundef %0, ptr noundef %1, i64 noundef %2) local_unnamed_addr #0 {
  %4 = icmp eq ptr %0, null
  br i1 %4, label %22, label %5

5:                                                ; preds = %3
  %6 = getelementptr inbounds nuw i8, ptr %0, i64 96
  %7 = load ptr, ptr %6, align 8, !tbaa !30
  %.not = icmp eq ptr %7, null
  br i1 %.not, label %10, label %8

8:                                                ; preds = %5
  %9 = tail call i32 @EVP_PKEY_set_octet_string_param(ptr noundef nonnull %0, ptr noundef nonnull @.str.2, ptr noundef %1, i64 noundef %2)
  br label %22

10:                                               ; preds = %5
  %11 = icmp ugt i64 %2, 2147483647
  br i1 %11, label %22, label %12

12:                                               ; preds = %10
  %13 = getelementptr inbounds nuw i8, ptr %0, i64 8
  %14 = load ptr, ptr %13, align 8, !tbaa !20
  %15 = icmp eq ptr %14, null
  br i1 %15, label %evp_pkey_asn1_ctrl.exit.thread, label %16

16:                                               ; preds = %12
  %17 = getelementptr inbounds nuw i8, ptr %14, i64 176
  %18 = load ptr, ptr %17, align 8, !tbaa !94
  %19 = icmp eq ptr %18, null
  br i1 %19, label %evp_pkey_asn1_ctrl.exit.thread, label %evp_pkey_asn1_ctrl.exit

evp_pkey_asn1_ctrl.exit:                          ; preds = %16
  %20 = tail call i32 %18(ptr noundef nonnull %0, i32 noundef 9, i64 noundef %2, ptr noundef %1) #12
  %.fr = freeze i32 %20
  %21 = icmp slt i32 %.fr, 1
  br i1 %21, label %evp_pkey_asn1_ctrl.exit.thread, label %22

evp_pkey_asn1_ctrl.exit.thread:                   ; preds = %12, %16, %evp_pkey_asn1_ctrl.exit
  br label %22

22:                                               ; preds = %evp_pkey_asn1_ctrl.exit.thread, %evp_pkey_asn1_ctrl.exit, %10, %3, %8
  %.0 = phi i32 [ %9, %8 ], [ 0, %3 ], [ 0, %10 ], [ 0, %evp_pkey_asn1_ctrl.exit.thread ], [ 1, %evp_pkey_asn1_ctrl.exit ]
  ret i32 %.0
}